# SymbolsHelper-Confirmed: 6.0.0 amd64
libKF6Bookmarks.so.6 libkf6bookmarks6 #MINVER#
* Build-Depends-Package: libkf6bookmarks-dev
 _ZN14KBookmarkGroup11addBookmarkERK7QStringRK4QUrlS2_@Base 6.0.0
 _ZN14KBookmarkGroup11addBookmarkERK9KBookmark@Base 6.0.0
 _ZN14KBookmarkGroup12moveBookmarkERK9KBookmarkS2_@Base 6.0.0
 _ZN14KBookmarkGroup14deleteBookmarkERK9KBookmark@Base 6.0.0
 _ZN14KBookmarkGroup15createNewFolderERK7QString@Base 6.0.0
 _ZN14KBookmarkGroup18createNewSeparatorEv@Base 6.0.0
 _ZN14KBookmarkGroupC1ERK11QDomElement@Base 6.0.0
 _ZN14KBookmarkGroupC1Ev@Base 6.0.0
 _ZN14KBookmarkGroupC2ERK11QDomElement@Base 6.0.0
 _ZN14KBookmarkGroupC2Ev@Base 6.0.0
 _ZN14KBookmarkOwner12openInNewTabERK9KBookmark@Base 6.0.0
 _ZN14KBookmarkOwner14FutureBookmarkC1ERK7QStringRK4QUrlS3_@Base 6.0.0
 _ZN14KBookmarkOwner14FutureBookmarkC1ERKS0_@Base 6.0.0
 _ZN14KBookmarkOwner14FutureBookmarkC2ERK7QStringRK4QUrlS3_@Base 6.0.0
 _ZN14KBookmarkOwner14FutureBookmarkC2ERKS0_@Base 6.0.0
 _ZN14KBookmarkOwner14FutureBookmarkD1Ev@Base 6.0.0
 _ZN14KBookmarkOwner14FutureBookmarkD2Ev@Base 6.0.0
 _ZN14KBookmarkOwner14FutureBookmarkaSERKS0_@Base 6.0.0
 _ZN14KBookmarkOwner15openInNewWindowERK9KBookmark@Base 6.0.0
 _ZN14KBookmarkOwner16openFolderinTabsERK14KBookmarkGroup@Base 6.0.0
 _ZN14KBookmarkOwnerC1Ev@Base 6.0.0
 _ZN14KBookmarkOwnerC2Ev@Base 6.0.0
 _ZN14KBookmarkOwnerD0Ev@Base 6.0.0
 _ZN14KBookmarkOwnerD1Ev@Base 6.0.0
 _ZN14KBookmarkOwnerD2Ev@Base 6.0.0
 _ZN14KEditBookmarks11openForFileERK7QString@Base 6.0.0
 _ZN14KEditBookmarks14setBrowserModeEb@Base 6.0.0
 _ZN14KEditBookmarks19startKEditBookmarksERK5QListI7QStringE@Base 6.0.0
 _ZN14KEditBookmarks20openForFileAtAddressERK7QStringS2_@Base 6.0.0
 _ZN15KBookmarkAction11qt_metacallEN11QMetaObject4CallEiPPv@Base 6.0.0
 _ZN15KBookmarkAction11qt_metacastEPKc@Base 6.0.0
 _ZN15KBookmarkAction12slotSelectedE6QFlagsIN2Qt11MouseButtonEES0_INS1_16KeyboardModifierEE@Base 6.0.0
 _ZN15KBookmarkAction16staticMetaObjectE@Base 6.0.0
 _ZN15KBookmarkActionC1ERK9KBookmarkP14KBookmarkOwnerP7QObject@Base 6.0.0
 _ZN15KBookmarkActionC2ERK9KBookmarkP14KBookmarkOwnerP7QObject@Base 6.0.0
 _ZN15KBookmarkActionD0Ev@Base 6.0.0
 _ZN15KBookmarkActionD1Ev@Base 6.0.0
 _ZN15KBookmarkActionD2Ev@Base 6.0.0
 _ZN16KBookmarkManager11emitChangedERK14KBookmarkGroup@Base 6.0.0
 _ZN16KBookmarkManager11emitChangedEv@Base 6.0.0
 _ZN16KBookmarkManager11qt_metacallEN11QMetaObject4CallEiPPv@Base 6.0.0
 _ZN16KBookmarkManager11qt_metacastEPKc@Base 6.0.0
 _ZN16KBookmarkManager13findByAddressERK7QString@Base 6.0.0
 _ZN16KBookmarkManager16staticMetaObjectE@Base 6.0.0
 _ZN16KBookmarkManager20updateAccessMetadataERK7QString@Base 6.0.0
 _ZN16KBookmarkManager5errorERK7QString@Base 6.0.0
 _ZN16KBookmarkManager7changedERK7QString@Base 6.0.0
 _ZN16KBookmarkManager7toolbarEv@Base 6.0.0
 _ZN16KBookmarkManagerC1ERK7QStringP7QObject@Base 6.0.0
 _ZN16KBookmarkManagerC2ERK7QStringP7QObject@Base 6.0.0
 _ZN16KBookmarkManagerD0Ev@Base 6.0.0
 _ZN16KBookmarkManagerD1Ev@Base 6.0.0
 _ZN16KBookmarkManagerD2Ev@Base 6.0.0
 _ZN17KBookmarkSettings12readSettingsEv@Base 6.0.0
 _ZN17KBookmarkSettings4selfEv@Base 6.0.0
 _ZN17KBookmarkSettings6s_selfE@Base 6.0.0
 _ZN23KBookmarkGroupTraverser10visitEnterERK14KBookmarkGroup@Base 6.0.0
 _ZN23KBookmarkGroupTraverser10visitLeaveERK14KBookmarkGroup@Base 6.0.0
 _ZN23KBookmarkGroupTraverser5visitERK9KBookmark@Base 6.0.0
 _ZN23KBookmarkGroupTraverser8traverseERK14KBookmarkGroup@Base 6.0.0
 _ZN23KBookmarkGroupTraverserD0Ev@Base 6.0.0
 _ZN23KBookmarkGroupTraverserD1Ev@Base 6.0.0
 _ZN23KBookmarkGroupTraverserD2Ev@Base 6.0.0
 _ZN24KBookmarkActionInterfaceC1ERK9KBookmark@Base 6.0.0
 _ZN24KBookmarkActionInterfaceC2ERK9KBookmark@Base 6.0.0
 _ZN24KBookmarkActionInterfaceD0Ev@Base 6.0.0
 _ZN24KBookmarkActionInterfaceD1Ev@Base 6.0.0
 _ZN24KBookmarkActionInterfaceD2Ev@Base 6.0.0
 _ZN9KBookmark11nextAddressERK7QString@Base 6.0.0
 _ZN9KBookmark11setFullTextERK7QString@Base 6.0.0
 _ZN9KBookmark11setMimeTypeERK7QString@Base 6.0.0
 _ZN9KBookmark12commonParentERK7QStringS2_@Base 6.0.0
 _ZN9KBookmark13parentAddressERK7QString@Base 6.0.0
 _ZN9KBookmark14setDescriptionERK7QString@Base 6.0.0
 _ZN9KBookmark15previousAddressERK7QString@Base 6.0.0
 _ZN9KBookmark15setMetaDataItemERK7QStringS2_NS_21MetaDataOverwriteModeE@Base 6.0.0
 _ZN9KBookmark16positionInParentERK7QString@Base 6.0.0
 _ZN9KBookmark16setShowInToolbarEb@Base 6.0.0
 _ZN9KBookmark18standaloneBookmarkERK7QStringRK4QUrlS2_@Base 6.0.0
 _ZN9KBookmark20updateAccessMetadataEv@Base 6.0.0
 _ZN9KBookmark4List12fromMimeDataEPK9QMimeDataR12QDomDocument@Base 6.0.0
 _ZN9KBookmark4List13mimeDataTypesEv@Base 6.0.0
 _ZN9KBookmark4List9canDecodeEPK9QMimeData@Base 6.0.0
 _ZN9KBookmark4ListC1Ev@Base 6.0.0
 _ZN9KBookmark4ListC2Ev@Base 6.0.0
 _ZN9KBookmark6setUrlERK4QUrl@Base 6.0.0
 _ZN9KBookmark7setIconERK7QString@Base 6.0.0
 _ZN9KBookmarkC1ERK11QDomElement@Base 6.0.0
 _ZN9KBookmarkC1Ev@Base 6.0.0
 _ZN9KBookmarkC2ERK11QDomElement@Base 6.0.0
 _ZN9KBookmarkC2Ev@Base 6.0.0
 _ZNK14KBookmarkGroup11findToolbarEv@Base 6.0.0
 _ZNK14KBookmarkGroup12groupUrlListEv@Base 6.0.0
 _ZNK14KBookmarkGroup12nextKnownTagERK11QDomElementb@Base 6.0.0
 _ZNK14KBookmarkGroup14isToolbarGroupEv@Base 6.0.0
 _ZNK14KBookmarkGroup4nextERK9KBookmark@Base 6.0.0
 _ZNK14KBookmarkGroup5firstEv@Base 6.0.0
 _ZNK14KBookmarkGroup6isOpenEv@Base 6.0.0
 _ZNK14KBookmarkGroup7indexOfERK9KBookmark@Base 6.0.0
 _ZNK14KBookmarkGroup8previousERK9KBookmark@Base 6.0.0
 _ZNK14KBookmarkOwner12enableOptionENS_14BookmarkOptionE@Base 6.0.0
 _ZNK14KBookmarkOwner14FutureBookmark3urlEv@Base 6.0.0
 _ZNK14KBookmarkOwner14FutureBookmark4iconEv@Base 6.0.0
 _ZNK14KBookmarkOwner14FutureBookmark5titleEv@Base 6.0.0
 _ZNK15KBookmarkAction10metaObjectEv@Base 6.0.0
 _ZNK16KBookmarkManager10metaObjectEv@Base 6.0.0
 _ZNK16KBookmarkManager16internalDocumentEv@Base 6.0.0
 _ZNK16KBookmarkManager4pathEv@Base 6.0.0
 _ZNK16KBookmarkManager4rootEv@Base 6.0.0
 _ZNK16KBookmarkManager4saveEb@Base 6.0.0
 _ZNK16KBookmarkManager6saveAsERK7QStringb@Base 6.0.0
 _ZNK24KBookmarkActionInterface8bookmarkEv@Base 6.0.0
 _ZNK9KBookmark11descriptionEv@Base 6.0.0
 _ZNK9KBookmark11isSeparatorEv@Base 6.0.0
 _ZNK9KBookmark11parentGroupEv@Base 6.0.0
 _ZNK9KBookmark12metaDataItemERK7QString@Base 6.0.0
 _ZNK9KBookmark13showInToolbarEv@Base 6.0.0
 _ZNK9KBookmark15internalElementEv@Base 6.0.0
 _ZNK9KBookmark16populateMimeDataEP9QMimeData@Base 6.0.0
 _ZNK9KBookmark16positionInParentEv@Base 6.0.0
 _ZNK9KBookmark3urlEv@Base 6.0.0
 _ZNK9KBookmark4List16populateMimeDataEP9QMimeData@Base 6.0.0
 _ZNK9KBookmark4iconEv@Base 6.0.0
 _ZNK9KBookmark4textEv@Base 6.0.0
 _ZNK9KBookmark6isNullEv@Base 6.0.0
 _ZNK9KBookmark7addressEv@Base 6.0.0
 _ZNK9KBookmark7isGroupEv@Base 6.0.0
 _ZNK9KBookmark7toGroupEv@Base 6.0.0
 _ZNK9KBookmark8fullTextEv@Base 6.0.0
 _ZNK9KBookmark8metaDataERK7QStringb@Base 6.0.0
 _ZNK9KBookmark8mimeTypeEv@Base 6.0.0
 _ZNK9KBookmark9hasParentEv@Base 6.0.0
 _ZNK9KBookmarkeqERKS_@Base 6.0.0
 _ZTI14KBookmarkOwner@Base 6.0.0
 _ZTI15KBookmarkAction@Base 6.0.0
 _ZTI16KBookmarkManager@Base 6.0.0
 _ZTI23KBookmarkGroupTraverser@Base 6.0.0
 _ZTI24KBookmarkActionInterface@Base 6.0.0
 _ZTS14KBookmarkOwner@Base 6.0.0
 _ZTS15KBookmarkAction@Base 6.0.0
 _ZTS16KBookmarkManager@Base 6.0.0
 _ZTS23KBookmarkGroupTraverser@Base 6.0.0
 _ZTS24KBookmarkActionInterface@Base 6.0.0
 _ZTV14KBookmarkOwner@Base 6.0.0
 _ZTV15KBookmarkAction@Base 6.0.0
 _ZTV16KBookmarkManager@Base 6.0.0
 _ZTV23KBookmarkGroupTraverser@Base 6.0.0
 _ZTV24KBookmarkActionInterface@Base 6.0.0
 (c++)"non-virtual thunk to KBookmarkAction::~KBookmarkAction()@Base" 6.0.0
