# SymbolsHelper-Confirmed: 6.0.0 amd64
libKF6BookmarksWidgets.so.6 libkf6bookmarkswidgets6 #MINVER#
* Build-Depends-Package: libkf6bookmarks-dev
 _ZN13KBookmarkMenu10addActionsEv@Base 6.0.0
 _ZN13KBookmarkMenu11contextMenuEP7QAction@Base 6.0.0
 _ZN13KBookmarkMenu11qt_metacallEN11QMetaObject4CallEiPPv@Base 6.0.0
 _ZN13KBookmarkMenu11qt_metacastEPKc@Base 6.0.0
 _ZN13KBookmarkMenu12addNewFolderEv@Base 6.0.0
 _ZN13KBookmarkMenu13addOpenInTabsEv@Base 6.0.0
 _ZN13KBookmarkMenu13fillBookmarksEv@Base 6.0.0
 _ZN13KBookmarkMenu13slotNewFolderEv@Base 6.0.0
 _ZN13KBookmarkMenu14addAddBookmarkEv@Base 6.0.0
 _ZN13KBookmarkMenu14ensureUpToDateEv@Base 6.0.0
 _ZN13KBookmarkMenu14setBrowserModeEb@Base 6.0.0
 _ZN13KBookmarkMenu15slotAboutToShowEv@Base 6.0.0
 _ZN13KBookmarkMenu15slotAddBookmarkEv@Base 6.0.0
 _ZN13KBookmarkMenu16addEditBookmarksEv@Base 6.0.0
 _ZN13KBookmarkMenu16staticMetaObjectE@Base 6.0.0
 _ZN13KBookmarkMenu17actionForBookmarkERK9KBookmark@Base 6.0.0
 _ZN13KBookmarkMenu17slotEditBookmarksEv@Base 6.0.0
 _ZN13KBookmarkMenu19addAddBookmarksListEv@Base 6.0.0
 _ZN13KBookmarkMenu20slotAddBookmarksListEv@Base 6.0.0
 _ZN13KBookmarkMenu20slotBookmarksChangedERK7QString@Base 6.0.0
 _ZN13KBookmarkMenu20slotOpenFolderInTabsEv@Base 6.0.0
 _ZN13KBookmarkMenu5clearEv@Base 6.0.0
 _ZN13KBookmarkMenu6refillEv@Base 6.0.0
 _ZN13KBookmarkMenuC1EP16KBookmarkManagerP14KBookmarkOwnerP5QMenu@Base 6.0.0
 _ZN13KBookmarkMenuC1EP16KBookmarkManagerP14KBookmarkOwnerP5QMenuRK7QString@Base 6.0.0
 _ZN13KBookmarkMenuC2EP16KBookmarkManagerP14KBookmarkOwnerP5QMenu@Base 6.0.0
 _ZN13KBookmarkMenuC2EP16KBookmarkManagerP14KBookmarkOwnerP5QMenuRK7QString@Base 6.0.0
 _ZN13KBookmarkMenuD0Ev@Base 6.0.0
 _ZN13KBookmarkMenuD1Ev@Base 6.0.0
 _ZN13KBookmarkMenuD2Ev@Base 6.0.0
 _ZN15KBookmarkDialog11addBookmarkERK7QStringRK4QUrlS2_9KBookmark@Base 6.0.0
 _ZN15KBookmarkDialog11qt_metacallEN11QMetaObject4CallEiPPv@Base 6.0.0
 _ZN15KBookmarkDialog11qt_metacastEPKc@Base 6.0.0
 _ZN15KBookmarkDialog12addBookmarksERK5QListIN14KBookmarkOwner14FutureBookmarkEERK7QString14KBookmarkGroup@Base 6.0.0
 _ZN15KBookmarkDialog12editBookmarkERK9KBookmark@Base 6.0.0
 _ZN15KBookmarkDialog12selectFolderE9KBookmark@Base 6.0.0
 _ZN15KBookmarkDialog15createNewFolderERK7QString9KBookmark@Base 6.0.0
 _ZN15KBookmarkDialog15newFolderButtonEv@Base 6.0.0
 _ZN15KBookmarkDialog16staticMetaObjectE@Base 6.0.0
 _ZN15KBookmarkDialog6acceptEv@Base 6.0.0
 _ZN15KBookmarkDialogC1EP16KBookmarkManagerP7QWidget@Base 6.0.0
 _ZN15KBookmarkDialogC2EP16KBookmarkManagerP7QWidget@Base 6.0.0
 _ZN15KBookmarkDialogD0Ev@Base 6.0.0
 _ZN15KBookmarkDialogD1Ev@Base 6.0.0
 _ZN15KBookmarkDialogD2Ev@Base 6.0.0
 _ZN19KBookmarkActionMenu11qt_metacallEN11QMetaObject4CallEiPPv@Base 6.0.0
 _ZN19KBookmarkActionMenu11qt_metacastEPKc@Base 6.0.0
 _ZN19KBookmarkActionMenu16staticMetaObjectE@Base 6.0.0
 _ZN19KBookmarkActionMenuC1ERK9KBookmarkP7QObject@Base 6.0.0
 _ZN19KBookmarkActionMenuC1ERK9KBookmarkRK7QStringP7QObject@Base 6.0.0
 _ZN19KBookmarkActionMenuC2ERK9KBookmarkP7QObject@Base 6.0.0
 _ZN19KBookmarkActionMenuC2ERK9KBookmarkRK7QStringP7QObject@Base 6.0.0
 _ZN19KBookmarkActionMenuD0Ev@Base 6.0.0
 _ZN19KBookmarkActionMenuD1Ev@Base 6.0.0
 _ZN19KBookmarkActionMenuD2Ev@Base 6.0.0
 _ZN20KBookmarkContextMenu10addActionsEv@Base 6.0.0
 _ZN20KBookmarkContextMenu10slotEditAtEv@Base 6.0.0
 _ZN20KBookmarkContextMenu10slotInsertEv@Base 6.0.0
 _ZN20KBookmarkContextMenu10slotRemoveEv@Base 6.0.0
 _ZN20KBookmarkContextMenu11addBookmarkEv@Base 6.0.0
 _ZN20KBookmarkContextMenu11qt_metacallEN11QMetaObject4CallEiPPv@Base 6.0.0
 _ZN20KBookmarkContextMenu11qt_metacastEPKc@Base 6.0.0
 _ZN20KBookmarkContextMenu13addPropertiesEv@Base 6.0.0
 _ZN20KBookmarkContextMenu14setBrowserModeEb@Base 6.0.0
 _ZN20KBookmarkContextMenu14slotPropertiesEv@Base 6.0.0
 _ZN20KBookmarkContextMenu16addFolderActionsEv@Base 6.0.0
 _ZN20KBookmarkContextMenu16slotCopyLocationEv@Base 6.0.0
 _ZN20KBookmarkContextMenu16staticMetaObjectE@Base 6.0.0
 _ZN20KBookmarkContextMenu18addBookmarkActionsEv@Base 6.0.0
 _ZN20KBookmarkContextMenu19addOpenFolderInTabsEv@Base 6.0.0
 _ZN20KBookmarkContextMenu20slotOpenFolderInTabsEv@Base 6.0.0
 _ZN20KBookmarkContextMenuC1ERK9KBookmarkP16KBookmarkManagerP14KBookmarkOwnerP7QWidget@Base 6.0.0
 _ZN20KBookmarkContextMenuC2ERK9KBookmarkP16KBookmarkManagerP14KBookmarkOwnerP7QWidget@Base 6.0.0
 _ZN20KBookmarkContextMenuD0Ev@Base 6.0.0
 _ZN20KBookmarkContextMenuD1Ev@Base 6.0.0
 _ZN20KBookmarkContextMenuD2Ev@Base 6.0.0
 _ZNK13KBookmarkMenu10metaObjectEv@Base 6.0.0
 _ZNK13KBookmarkMenu10parentMenuEv@Base 6.0.0
 _ZNK13KBookmarkMenu11browserModeEv@Base 6.0.0
 _ZNK13KBookmarkMenu13parentAddressEv@Base 6.0.0
 _ZNK13KBookmarkMenu17addBookmarkActionEv@Base 6.0.0
 _ZNK13KBookmarkMenu19editBookmarksActionEv@Base 6.0.0
 _ZNK13KBookmarkMenu23newBookmarkFolderActionEv@Base 6.0.0
 _ZNK13KBookmarkMenu26bookmarkTabsAsFolderActionEv@Base 6.0.0
 _ZNK13KBookmarkMenu5ownerEv@Base 6.0.0
 _ZNK13KBookmarkMenu6isRootEv@Base 6.0.0
 _ZNK13KBookmarkMenu7isDirtyEv@Base 6.0.0
 _ZNK13KBookmarkMenu7managerEv@Base 6.0.0
 _ZNK15KBookmarkDialog10metaObjectEv@Base 6.0.0
 _ZNK19KBookmarkActionMenu10metaObjectEv@Base 6.0.0
 _ZNK20KBookmarkContextMenu10metaObjectEv@Base 6.0.0
 _ZNK20KBookmarkContextMenu11browserModeEv@Base 6.0.0
 _ZNK20KBookmarkContextMenu5ownerEv@Base 6.0.0
 _ZNK20KBookmarkContextMenu7managerEv@Base 6.0.0
 _ZNK20KBookmarkContextMenu8bookmarkEv@Base 6.0.0
 _ZTI13KBookmarkMenu@Base 6.0.0
 _ZTI15KBookmarkDialog@Base 6.0.0
 _ZTI19KBookmarkActionMenu@Base 6.0.0
 _ZTI20KBookmarkContextMenu@Base 6.0.0
 _ZTS13KBookmarkMenu@Base 6.0.0
 _ZTS15KBookmarkDialog@Base 6.0.0
 _ZTS19KBookmarkActionMenu@Base 6.0.0
 _ZTS20KBookmarkContextMenu@Base 6.0.0
 _ZTV13KBookmarkMenu@Base 6.0.0
 _ZTV15KBookmarkDialog@Base 6.0.0
 _ZTV19KBookmarkActionMenu@Base 6.0.0
 _ZTV20KBookmarkContextMenu@Base 6.0.0
 (c++)"non-virtual thunk to KBookmarkActionMenu::~KBookmarkActionMenu()@Base" 6.0.0
 (c++)"non-virtual thunk to KBookmarkContextMenu::~KBookmarkContextMenu()@Base" 6.0.0
 (c++)"non-virtual thunk to KBookmarkDialog::~KBookmarkDialog()@Base" 6.0.0
